target datalayout = "e-m:e-p270:32:32-p271:32:32-p272:64:64-i64:64-i128:128-f80:128-n8:16:32:64-S128"
target triple = "x86_64-pc-linux-gnu"

@ett_s7comm_szl_0131_0004_funkt_0 = internal global i32 0, align 4
@ett_s7comm_szl_0131_0004_funkt_1 = internal global i32 0, align 4
@ett_s7comm_szl_0131_0004_funkt_2 = internal global i32 0, align 4
@ett_s7comm_szl_0131_0004_funkt_3 = internal global i32 0, align 4
@ett_s7comm_szl_0131_0004_funkt_4 = internal global i32 0, align 4
@hf_s7comm_szl_0131_0004_index = internal global i32 0, align 4
@hf_s7comm_szl_0131_0004_funkt_0 = internal global i32 0, align 4
@hf_s7comm_szl_0131_0004_funkt_1 = internal global i32 0, align 4
@hf_s7comm_szl_0131_0004_funkt_2 = internal global i32 0, align 4
@hf_s7comm_szl_0131_0004_funkt_3 = internal global i32 0, align 4
@hf_s7comm_szl_0131_0004_funkt_4 = internal global i32 0, align 4
@hf_s7comm_szl_0131_0004_funkt_5 = internal global i32 0, align 4
@hf_s7comm_szl_0131_0004_funkt_6 = internal global i32 0, align 4
@hf_s7comm_szl_0131_0004_funkt_7 = internal global i32 0, align 4
@hf_s7comm_szl_0131_0004_kop = internal global i32 0, align 4
@hf_s7comm_szl_0131_0004_del = internal global i32 0, align 4
@hf_s7comm_szl_0131_0004_kett = internal global i32 0, align 4
@hf_s7comm_szl_0131_0004_hoch = internal global i32 0, align 4
@hf_s7comm_szl_0131_0004_ver = internal global i32 0, align 4
@hf_s7comm_szl_0131_0004_res = internal global i32 0, align 4

; Function Attrs: null_pointer_is_valid sspstrong uwtable
define internal i32 @s7comm_decode_szl_id_0131_idx_0004(ptr noundef %0, ptr noundef %1, i32 noundef %2) #0 {
  %4 = alloca ptr, align 8
  %5 = alloca ptr, align 8
  %6 = alloca i32, align 4
  store ptr %0, ptr %4, align 8
  store ptr %1, ptr %5, align 8
  store i32 %2, ptr %6, align 4
  %7 = load ptr, ptr %5, align 8
  %8 = load i32, ptr @hf_s7comm_szl_0131_0004_index, align 4
  %9 = load ptr, ptr %4, align 8
  %10 = load i32, ptr %6, align 4
  %11 = call ptr @proto_tree_add_item(ptr noundef %7, i32 noundef %8, ptr noundef %9, i32 noundef %10, i32 noundef 2, i32 noundef 0)
  %12 = load i32, ptr %6, align 4
  %13 = add i32 %12, 2
  store i32 %13, ptr %6, align 4
  %14 = load ptr, ptr %5, align 8
  %15 = load ptr, ptr %4, align 8
  %16 = load i32, ptr %6, align 4
  %17 = load i32, ptr @hf_s7comm_szl_0131_0004_funkt_0, align 4
  %18 = load i32, ptr @ett_s7comm_szl_0131_0004_funkt_0, align 4
  %19 = call ptr @proto_tree_add_bitmask(ptr noundef %14, ptr noundef %15, i32 noundef %16, i32 noundef %17, i32 noundef %18, ptr noundef @s7comm_szl_0131_0004_funkt_0_fields, i32 noundef 0)
  %20 = load i32, ptr %6, align 4
  %21 = add i32 %20, 1
  store i32 %21, ptr %6, align 4
  %22 = load ptr, ptr %5, align 8
  %23 = load ptr, ptr %4, align 8
  %24 = load i32, ptr %6, align 4
  %25 = load i32, ptr @hf_s7comm_szl_0131_0004_funkt_1, align 4
  %26 = load i32, ptr @ett_s7comm_szl_0131_0004_funkt_1, align 4
  %27 = call ptr @proto_tree_add_bitmask(ptr noundef %22, ptr noundef %23, i32 noundef %24, i32 noundef %25, i32 noundef %26, ptr noundef @s7comm_szl_0131_0004_funkt_1_fields, i32 noundef 0)
  %28 = load i32, ptr %6, align 4
  %29 = add i32 %28, 1
  store i32 %29, ptr %6, align 4
  %30 = load ptr, ptr %5, align 8
  %31 = load ptr, ptr %4, align 8
  %32 = load i32, ptr %6, align 4
  %33 = load i32, ptr @hf_s7comm_szl_0131_0004_funkt_2, align 4
  %34 = load i32, ptr @ett_s7comm_szl_0131_0004_funkt_2, align 4
  %35 = call ptr @proto_tree_add_bitmask(ptr noundef %30, ptr noundef %31, i32 noundef %32, i32 noundef %33, i32 noundef %34, ptr noundef @s7comm_szl_0131_0004_funkt_2_fields, i32 noundef 0)
  %36 = load i32, ptr %6, align 4
  %37 = add i32 %36, 1
  store i32 %37, ptr %6, align 4
  %38 = load ptr, ptr %5, align 8
  %39 = load ptr, ptr %4, align 8
  %40 = load i32, ptr %6, align 4
  %41 = load i32, ptr @hf_s7comm_szl_0131_0004_funkt_3, align 4
  %42 = load i32, ptr @ett_s7comm_szl_0131_0004_funkt_3, align 4
  %43 = call ptr @proto_tree_add_bitmask(ptr noundef %38, ptr noundef %39, i32 noundef %40, i32 noundef %41, i32 noundef %42, ptr noundef @s7comm_szl_0131_0004_funkt_3_fields, i32 noundef 0)
  %44 = load i32, ptr %6, align 4
  %45 = add i32 %44, 1
  store i32 %45, ptr %6, align 4
  %46 = load ptr, ptr %5, align 8
  %47 = load ptr, ptr %4, align 8
  %48 = load i32, ptr %6, align 4
  %49 = load i32, ptr @hf_s7comm_szl_0131_0004_funkt_4, align 4
  %50 = load i32, ptr @ett_s7comm_szl_0131_0004_funkt_4, align 4
  %51 = call ptr @proto_tree_add_bitmask(ptr noundef %46, ptr noundef %47, i32 noundef %48, i32 noundef %49, i32 noundef %50, ptr noundef @s7comm_szl_0131_0004_funkt_4_fields, i32 noundef 0)
  %52 = load i32, ptr %6, align 4
  %53 = add i32 %52, 1
  store i32 %53, ptr %6, align 4
  %54 = load ptr, ptr %5, align 8
  %55 = load i32, ptr @hf_s7comm_szl_0131_0004_funkt_5, align 4
  %56 = load ptr, ptr %4, align 8
  %57 = load i32, ptr %6, align 4
  %58 = call ptr @proto_tree_add_item(ptr noundef %54, i32 noundef %55, ptr noundef %56, i32 noundef %57, i32 noundef 1, i32 noundef 0)
  %59 = load i32, ptr %6, align 4
  %60 = add i32 %59, 1
  store i32 %60, ptr %6, align 4
  %61 = load ptr, ptr %5, align 8
  %62 = load i32, ptr @hf_s7comm_szl_0131_0004_funkt_6, align 4
  %63 = load ptr, ptr %4, align 8
  %64 = load i32, ptr %6, align 4
  %65 = call ptr @proto_tree_add_item(ptr noundef %61, i32 noundef %62, ptr noundef %63, i32 noundef %64, i32 noundef 1, i32 noundef 0)
  %66 = load i32, ptr %6, align 4
  %67 = add i32 %66, 1
  store i32 %67, ptr %6, align 4
  %68 = load ptr, ptr %5, align 8
  %69 = load i32, ptr @hf_s7comm_szl_0131_0004_funkt_7, align 4
  %70 = load ptr, ptr %4, align 8
  %71 = load i32, ptr %6, align 4
  %72 = call ptr @proto_tree_add_item(ptr noundef %68, i32 noundef %69, ptr noundef %70, i32 noundef %71, i32 noundef 1, i32 noundef 0)
  %73 = load i32, ptr %6, align 4
  %74 = add i32 %73, 1
  store i32 %74, ptr %6, align 4
  %75 = load ptr, ptr %5, align 8
  %76 = load i32, ptr @hf_s7comm_szl_0131_0004_kop, align 4
  %77 = load ptr, ptr %4, align 8
  %78 = load i32, ptr %6, align 4
  %79 = call ptr @proto_tree_add_item(ptr noundef %75, i32 noundef %76, ptr noundef %77, i32 noundef %78, i32 noundef 1, i32 noundef 0)
  %80 = load i32, ptr %6, align 4
  %81 = add i32 %80, 1
  store i32 %81, ptr %6, align 4
  %82 = load ptr, ptr %5, align 8
  %83 = load i32, ptr @hf_s7comm_szl_0131_0004_del, align 4
  %84 = load ptr, ptr %4, align 8
  %85 = load i32, ptr %6, align 4
  %86 = call ptr @proto_tree_add_item(ptr noundef %82, i32 noundef %83, ptr noundef %84, i32 noundef %85, i32 noundef 1, i32 noundef 0)
  %87 = load i32, ptr %6, align 4
  %88 = add i32 %87, 1
  store i32 %88, ptr %6, align 4
  %89 = load ptr, ptr %5, align 8
  %90 = load i32, ptr @hf_s7comm_szl_0131_0004_kett, align 4
  %91 = load ptr, ptr %4, align 8
  %92 = load i32, ptr %6, align 4
  %93 = call ptr @proto_tree_add_item(ptr noundef %89, i32 noundef %90, ptr noundef %91, i32 noundef %92, i32 noundef 1, i32 noundef 0)
  %94 = load i32, ptr %6, align 4
  %95 = add i32 %94, 1
  store i32 %95, ptr %6, align 4
  %96 = load ptr, ptr %5, align 8
  %97 = load i32, ptr @hf_s7comm_szl_0131_0004_hoch, align 4
  %98 = load ptr, ptr %4, align 8
  %99 = load i32, ptr %6, align 4
  %100 = call ptr @proto_tree_add_item(ptr noundef %96, i32 noundef %97, ptr noundef %98, i32 noundef %99, i32 noundef 1, i32 noundef 0)
  %101 = load i32, ptr %6, align 4
  %102 = add i32 %101, 1
  store i32 %102, ptr %6, align 4
  %103 = load ptr, ptr %5, align 8
  %104 = load i32, ptr @hf_s7comm_szl_0131_0004_ver, align 4
  %105 = load ptr, ptr %4, align 8
  %106 = load i32, ptr %6, align 4
  %107 = call ptr @proto_tree_add_item(ptr noundef %103, i32 noundef %104, ptr noundef %105, i32 noundef %106, i32 noundef 1, i32 noundef 0)
  %108 = load i32, ptr %6, align 4
  %109 = add i32 %108, 1
  store i32 %109, ptr %6, align 4
  %110 = load ptr, ptr %5, align 8
  %111 = load i32, ptr @hf_s7comm_szl_0131_0004_res, align 4
  %112 = load ptr, ptr %4, align 8
  %113 = load i32, ptr %6, align 4
  %114 = call ptr @proto_tree_add_item(ptr noundef %110, i32 noundef %111, ptr noundef %112, i32 noundef %113, i32 noundef 25, i32 noundef 0)
  %115 = load i32, ptr %6, align 4
  %116 = add i32 %115, 25
  store i32 %116, ptr %6, align 4
  %117 = load i32, ptr %6, align 4
  ret i32 %117
}