; Function Attrs: null_pointer_is_valid sspstrong uwtable
define internal fastcc noundef i32 @s7comm_decode_szl_id_0131_idx_0004(ptr noundef %0, ptr noundef %1, i32 noundef %2) unnamed_addr #0 {
  %4 = load i32, ptr @hf_s7comm_szl_0131_0004_index, align 4
  %5 = tail call ptr @proto_tree_add_item(ptr noundef %1, i32 noundef %4, ptr noundef %0, i32 noundef %2, i32 noundef 2, i32 noundef 0)
  %6 = add i32 %2, 2
  %7 = load i32, ptr @hf_s7comm_szl_0131_0004_funkt_0, align 4
  %8 = load i32, ptr @ett_s7comm_szl_0131_0004_funkt_0, align 4
  %9 = tail call ptr @proto_tree_add_bitmask(ptr noundef %1, ptr noundef %0, i32 noundef %6, i32 noundef %7, i32 noundef %8, ptr noundef nonnull @s7comm_szl_0131_0004_funkt_0_fields, i32 noundef 0)
  %10 = add i32 %2, 3
  %11 = load i32, ptr @hf_s7comm_szl_0131_0004_funkt_1, align 4
  %12 = load i32, ptr @ett_s7comm_szl_0131_0004_funkt_1, align 4
  %13 = tail call ptr @proto_tree_add_bitmask(ptr noundef %1, ptr noundef %0, i32 noundef %10, i32 noundef %11, i32 noundef %12, ptr noundef nonnull @s7comm_szl_0131_0004_funkt_1_fields, i32 noundef 0)
  %14 = add i32 %2, 4
  %15 = load i32, ptr @hf_s7comm_szl_0131_0004_funkt_2, align 4
  %16 = load i32, ptr @ett_s7comm_szl_0131_0004_funkt_2, align 4
  %17 = tail call ptr @proto_tree_add_bitmask(ptr noundef %1, ptr noundef %0, i32 noundef %14, i32 noundef %15, i32 noundef %16, ptr noundef nonnull @s7comm_szl_0131_0004_funkt_2_fields, i32 noundef 0)
  %18 = add i32 %2, 5
  %19 = load i32, ptr @hf_s7comm_szl_0131_0004_funkt_3, align 4
  %20 = load i32, ptr @ett_s7comm_szl_0131_0004_funkt_3, align 4
  %21 = tail call ptr @proto_tree_add_bitmask(ptr noundef %1, ptr noundef %0, i32 noundef %18, i32 noundef %19, i32 noundef %20, ptr noundef nonnull @s7comm_szl_0131_0004_funkt_3_fields, i32 noundef 0)
  %22 = add i32 %2, 6
  %23 = load i32, ptr @hf_s7comm_szl_0131_0004_funkt_4, align 4
  %24 = load i32, ptr @ett_s7comm_szl_0131_0004_funkt_4, align 4
  %25 = tail call ptr @proto_tree_add_bitmask(ptr noundef %1, ptr noundef %0, i32 noundef %22, i32 noundef %23, i32 noundef %24, ptr noundef nonnull @s7comm_szl_0131_0004_funkt_4_fields, i32 noundef 0)
  %26 = add i32 %2, 7
  %27 = load i32, ptr @hf_s7comm_szl_0131_0004_funkt_5, align 4
  %28 = tail call ptr @proto_tree_add_item(ptr noundef %1, i32 noundef %27, ptr noundef %0, i32 noundef %26, i32 noundef 1, i32 noundef 0)
  %29 = add i32 %2, 8
  %30 = load i32, ptr @hf_s7comm_szl_0131_0004_funkt_6, align 4
  %31 = tail call ptr @proto_tree_add_item(ptr noundef %1, i32 noundef %30, ptr noundef %0, i32 noundef %29, i32 noundef 1, i32 noundef 0)
  %32 = add i32 %2, 9
  %33 = load i32, ptr @hf_s7comm_szl_0131_0004_funkt_7, align 4
  %34 = tail call ptr @proto_tree_add_item(ptr noundef %1, i32 noundef %33, ptr noundef %0, i32 noundef %32, i32 noundef 1, i32 noundef 0)
  %35 = add i32 %2, 10
  %36 = load i32, ptr @hf_s7comm_szl_0131_0004_kop, align 4
  %37 = tail call ptr @proto_tree_add_item(ptr noundef %1, i32 noundef %36, ptr noundef %0, i32 noundef %35, i32 noundef 1, i32 noundef 0)
  %38 = add i32 %2, 11
  %39 = load i32, ptr @hf_s7comm_szl_0131_0004_del, align 4
  %40 = tail call ptr @proto_tree_add_item(ptr noundef %1, i32 noundef %39, ptr noundef %0, i32 noundef %38, i32 noundef 1, i32 noundef 0)
  %41 = add i32 %2, 12
  %42 = load i32, ptr @hf_s7comm_szl_0131_0004_kett, align 4
  %43 = tail call ptr @proto_tree_add_item(ptr noundef %1, i32 noundef %42, ptr noundef %0, i32 noundef %41, i32 noundef 1, i32 noundef 0)
  %44 = add i32 %2, 13
  %45 = load i32, ptr @hf_s7comm_szl_0131_0004_hoch, align 4
  %46 = tail call ptr @proto_tree_add_item(ptr noundef %1, i32 noundef %45, ptr noundef %0, i32 noundef %44, i32 noundef 1, i32 noundef 0)
  %47 = add i32 %2, 14
  %48 = load i32, ptr @hf_s7comm_szl_0131_0004_ver, align 4
  %49 = tail call ptr @proto_tree_add_item(ptr noundef %1, i32 noundef %48, ptr noundef %0, i32 noundef %47, i32 noundef 1, i32 noundef 0)
  %50 = add i32 %2, 15
  %51 = load i32, ptr @hf_s7comm_szl_0131_0004_res, align 4
  %52 = tail call ptr @proto_tree_add_item(ptr noundef %1, i32 noundef %51, ptr noundef %0, i32 noundef %50, i32 noundef 25, i32 noundef 0)
  %53 = add i32 %2, 40
  ret i32 %53
}